target datalayout = "e-m:e-p270:32:32-p271:32:32-p272:64:64-i64:64-i128:128-f80:128-n8:16:32:64-S128"
target triple = "x86_64-pc-linux-gnu"

%struct._e_guid_t = type { i32, i16, i16, [8 x i8] }
%struct._dcerpc_info = type { ptr, i32, i64, i8, i32, i32, i32, i32, i32, i32, i32, i32, i32, i32, ptr, ptr, ptr }
%struct._packet_info = type { ptr, ptr, i32, i32, %struct.nstime_t, %struct.nstime_t, %struct.nstime_t, i32, ptr, ptr, ptr, ptr, %struct._address, %struct._address, %struct._address, %struct._address, %struct._address, %struct._address, i32, ptr, i32, %struct.anon, i32, i32, i32, i32, ptr, i32, ptr, ptr, i16, i16, i32, i32, i16, i32, i32, ptr, ptr, ptr, i8, i8, i16, i16, i16, i32, i16, i16, ptr, ptr, ptr, ptr, ptr, i32 }
%struct.nstime_t = type { i64, i32 }
%struct._address = type { i32, i32, ptr, ptr }
%struct.anon = type { i8, [3 x i8] }
%struct._dcerpc_call_value = type { %struct._e_guid_t, i16, %struct._e_guid_t, i16, i32, %struct.nstime_t, i32, i32, ptr, ptr, ptr, i32 }
%struct._frame_data = type { i32, i32, i32, i32, i64, ptr, ptr, ptr, i16, i16, %struct.nstime_t, %struct.nstime_t, i32, i32, i8 }

@hf_level = internal global i32 0, align 4
@hf_hnd = internal global i32 0, align 4
@hf_offered = internal global i32 0, align 4
@hf_job_id = internal global i32 0, align 4
@.str.435 = private unnamed_addr constant [7 x i8] c"Buffer\00", align 1
@.str.1211 = private unnamed_addr constant [21 x i8] c", level %d, jobid %d\00", align 1

; Function Attrs: nounwind uwtable
define internal i32 @dissect_spoolss_buffer(ptr noundef %0, i32 noundef %1, ptr noundef %2, ptr noundef %3, ptr noundef %4, ptr noundef %5, ptr noundef %6) #0 {
  %8 = alloca ptr, align 8
  %9 = alloca i32, align 4
  %10 = alloca ptr, align 8
  %11 = alloca ptr, align 8
  %12 = alloca ptr, align 8
  %13 = alloca ptr, align 8
  %14 = alloca ptr, align 8
  store ptr %0, ptr %8, align 8
  store i32 %1, ptr %9, align 4
  store ptr %2, ptr %10, align 8
  store ptr %3, ptr %11, align 8
  store ptr %4, ptr %12, align 8
  store ptr %5, ptr %13, align 8
  store ptr %6, ptr %14, align 8
  %15 = load ptr, ptr %14, align 8
  %16 = icmp ne ptr %15, null
  br i1 %16, label %17, label %19

17:                                               ; preds = %7
  %18 = load ptr, ptr %14, align 8
  call void @llvm.memset.p0.i64(ptr align 8 %18, i8 0, i64 24, i1 false)
  br label %19

19:                                               ; preds = %17, %7
  %20 = load ptr, ptr %14, align 8
  %21 = load ptr, ptr %12, align 8
  %22 = getelementptr inbounds %struct._dcerpc_info, ptr %21, i32 0, i32 16
  store ptr %20, ptr %22, align 8
  %23 = load ptr, ptr %8, align 8
  %24 = load i32, ptr %9, align 4
  %25 = load ptr, ptr %10, align 8
  %26 = load ptr, ptr %11, align 8
  %27 = load ptr, ptr %12, align 8
  %28 = load ptr, ptr %13, align 8
  %29 = call i32 @dissect_ndr_pointer(ptr noundef %23, i32 noundef %24, ptr noundef %25, ptr noundef %26, ptr noundef %27, ptr noundef %28, ptr noundef @dissect_spoolss_buffer_data, i32 noundef 2, ptr noundef @.str.435, i32 noundef -1)
  store i32 %29, ptr %9, align 4
  %30 = load i32, ptr %9, align 4
  ret i32 %30
}

; Function Attrs: nounwind uwtable
define internal i32 @SpoolssGetJob_q(ptr noundef %0, i32 noundef %1, ptr noundef %2, ptr noundef %3, ptr noundef %4, ptr noundef %5) #0 {
  %7 = alloca ptr, align 8
  %8 = alloca i32, align 4
  %9 = alloca ptr, align 8
  %10 = alloca ptr, align 8
  %11 = alloca ptr, align 8
  %12 = alloca ptr, align 8
  %13 = alloca ptr, align 8
  %14 = alloca i32, align 4
  %15 = alloca i32, align 4
  store ptr %0, ptr %7, align 8
  store i32 %1, ptr %8, align 4
  store ptr %2, ptr %9, align 8
  store ptr %3, ptr %10, align 8
  store ptr %4, ptr %11, align 8
  store ptr %5, ptr %12, align 8
  %16 = load ptr, ptr %11, align 8
  %17 = getelementptr inbounds %struct._dcerpc_info, ptr %16, i32 0, i32 14
  %18 = load ptr, ptr %17, align 8
  store ptr %18, ptr %13, align 8
  %19 = load ptr, ptr %7, align 8
  %20 = load i32, ptr %8, align 4
  %21 = load ptr, ptr %9, align 8
  %22 = load ptr, ptr %10, align 8
  %23 = load ptr, ptr %11, align 8
  %24 = load ptr, ptr %12, align 8
  %25 = load i32, ptr @hf_hnd, align 4
  %26 = call i32 @dissect_nt_policy_hnd(ptr noundef %19, i32 noundef %20, ptr noundef %21, ptr noundef %22, ptr noundef %23, ptr noundef %24, i32 noundef %25, ptr noundef null, ptr noundef null, i32 noundef 0, i32 noundef 0)
  store i32 %26, ptr %8, align 4
  %27 = load ptr, ptr %7, align 8
  %28 = load i32, ptr %8, align 4
  %29 = load ptr, ptr %9, align 8
  %30 = load ptr, ptr %10, align 8
  %31 = load ptr, ptr %11, align 8
  %32 = load ptr, ptr %12, align 8
  %33 = load i32, ptr @hf_job_id, align 4
  %34 = call i32 @dissect_ndr_uint32(ptr noundef %27, i32 noundef %28, ptr noundef %29, ptr noundef %30, ptr noundef %31, ptr noundef %32, i32 noundef %33, ptr noundef %15)
  store i32 %34, ptr %8, align 4
  %35 = load ptr, ptr %7, align 8
  %36 = load i32, ptr %8, align 4
  %37 = load ptr, ptr %9, align 8
  %38 = load ptr, ptr %10, align 8
  %39 = load ptr, ptr %11, align 8
  %40 = load ptr, ptr %12, align 8
  %41 = load i32, ptr @hf_level, align 4
  %42 = call i32 @dissect_ndr_uint32(ptr noundef %35, i32 noundef %36, ptr noundef %37, ptr noundef %38, ptr noundef %39, ptr noundef %40, i32 noundef %41, ptr noundef %14)
  store i32 %42, ptr %8, align 4
  %43 = load ptr, ptr %9, align 8
  %44 = getelementptr inbounds %struct._packet_info, ptr %43, i32 0, i32 8
  %45 = load ptr, ptr %44, align 8
  %46 = getelementptr inbounds %struct._frame_data, ptr %45, i32 0, i32 9
  %47 = load i16, ptr %46, align 2
  %48 = lshr i16 %47, 3
  %49 = and i16 %48, 1
  %50 = zext i16 %49 to i32
  %51 = icmp ne i32 %50, 0
  br i1 %51, label %58, label %52

52:                                               ; preds = %6
  %53 = load i32, ptr %14, align 4
  %54 = sext i32 %53 to i64
  %55 = inttoptr i64 %54 to ptr
  %56 = load ptr, ptr %13, align 8
  %57 = getelementptr inbounds %struct._dcerpc_call_value, ptr %56, i32 0, i32 8
  store ptr %55, ptr %57, align 8
  br label %58

58:                                               ; preds = %52, %6
  %59 = load ptr, ptr %9, align 8
  %60 = getelementptr inbounds %struct._packet_info, ptr %59, i32 0, i32 1
  %61 = load ptr, ptr %60, align 8
  %62 = load i32, ptr %14, align 4
  %63 = load i32, ptr %15, align 4
  call void (ptr, i32, ptr, ...) @col_append_fstr(ptr noundef %61, i32 noundef 25, ptr noundef @.str.1211, i32 noundef %62, i32 noundef %63)
  %64 = load ptr, ptr %7, align 8
  %65 = load i32, ptr %8, align 4
  %66 = load ptr, ptr %9, align 8
  %67 = load ptr, ptr %10, align 8
  %68 = load ptr, ptr %11, align 8
  %69 = load ptr, ptr %12, align 8
  %70 = call i32 @dissect_spoolss_buffer(ptr noundef %64, i32 noundef %65, ptr noundef %66, ptr noundef %67, ptr noundef %68, ptr noundef %69, ptr noundef null)
  store i32 %70, ptr %8, align 4
  %71 = load ptr, ptr %7, align 8
  %72 = load i32, ptr %8, align 4
  %73 = load ptr, ptr %9, align 8
  %74 = load ptr, ptr %10, align 8
  %75 = load ptr, ptr %11, align 8
  %76 = load ptr, ptr %12, align 8
  %77 = load i32, ptr @hf_offered, align 4
  %78 = call i32 @dissect_ndr_uint32(ptr noundef %71, i32 noundef %72, ptr noundef %73, ptr noundef %74, ptr noundef %75, ptr noundef %76, i32 noundef %77, ptr noundef null)
  store i32 %78, ptr %8, align 4
  %79 = load i32, ptr %8, align 4
  ret i32 %79
}