; Function Attrs: nounwind uwtable
define internal i32 @SpoolssGetJob_q(ptr noundef %0, i32 noundef %1, ptr noundef %2, ptr noundef %3, ptr noundef %4, ptr noundef %5) #0 {
  %7 = alloca i32, align 4
  %8 = alloca i32, align 4
  %9 = getelementptr inbounds nuw i8, ptr %4, i64 72
  %10 = load ptr, ptr %9, align 8
  %11 = load i32, ptr @hf_hnd, align 4
  %12 = tail call i32 @dissect_nt_policy_hnd(ptr noundef %0, i32 noundef %1, ptr noundef %2, ptr noundef %3, ptr noundef %4, ptr noundef %5, i32 noundef %11, ptr noundef null, ptr noundef null, i32 noundef 0, i32 noundef 0) #5
  %13 = load i32, ptr @hf_job_id, align 4
  %14 = call i32 @dissect_ndr_uint32(ptr noundef %0, i32 noundef %12, ptr noundef %2, ptr noundef %3, ptr noundef %4, ptr noundef %5, i32 noundef %13, ptr noundef nonnull %8) #5
  %15 = load i32, ptr @hf_level, align 4
  %16 = call i32 @dissect_ndr_uint32(ptr noundef %0, i32 noundef %14, ptr noundef %2, ptr noundef %3, ptr noundef %4, ptr noundef %5, i32 noundef %15, ptr noundef nonnull %7) #5
  %17 = getelementptr inbounds nuw i8, ptr %2, i64 80
  %18 = load ptr, ptr %17, align 8
  %19 = getelementptr inbounds nuw i8, ptr %18, i64 50
  %20 = load i16, ptr %19, align 2
  %21 = and i16 %20, 8
  %.not = icmp eq i16 %21, 0
  %.pre = load i32, ptr %7, align 4
  br i1 %.not, label %22, label %26

22:                                               ; preds = %6
  %23 = sext i32 %.pre to i64
  %24 = inttoptr i64 %23 to ptr
  %25 = getelementptr inbounds nuw i8, ptr %10, i64 72
  store ptr %24, ptr %25, align 8
  br label %26

26:                                               ; preds = %22, %6
  %27 = getelementptr inbounds nuw i8, ptr %2, i64 8
  %28 = load ptr, ptr %27, align 8
  %29 = load i32, ptr %8, align 4
  call void (ptr, i32, ptr, ...) @col_append_fstr(ptr noundef %28, i32 noundef 25, ptr noundef nonnull @.str.1211, i32 noundef %.pre, i32 noundef %29) #5
  %30 = getelementptr inbounds nuw i8, ptr %4, i64 88
  store ptr null, ptr %30, align 8
  %31 = call i32 @dissect_ndr_pointer(ptr noundef %0, i32 noundef %16, ptr noundef nonnull %2, ptr noundef %3, ptr noundef nonnull %4, ptr noundef %5, ptr noundef nonnull @dissect_spoolss_buffer_data, i32 noundef 2, ptr noundef nonnull @.str.435, i32 noundef -1) #5
  %32 = load i32, ptr @hf_offered, align 4
  %33 = call i32 @dissect_ndr_uint32(ptr noundef %0, i32 noundef %31, ptr noundef nonnull %2, ptr noundef %3, ptr noundef nonnull %4, ptr noundef %5, i32 noundef %32, ptr noundef null) #5
  ret i32 %33
}